
Assignment_1.ino.elf:     file format elf32-avr

Sections:
Idx Name          Size      VMA       LMA       File off  Algn
  0 .data         00000186  00800100  00000a46  00000ada  2**0
                  CONTENTS, ALLOC, LOAD, DATA
  1 .text         00000a46  00000000  00000000  00000094  2**1
                  CONTENTS, ALLOC, LOAD, READONLY, CODE
  2 .bss          000000a6  00800286  00800286  00000c60  2**0
                  ALLOC
  3 .comment      00000030  00000000  00000000  00000c60  2**0
                  CONTENTS, READONLY
  4 .note.gnu.avr.deviceinfo 00000040  00000000  00000000  00000c90  2**2
                  CONTENTS, READONLY
  5 .debug_aranges 00000228  00000000  00000000  00000cd0  2**0
                  CONTENTS, READONLY, DEBUGGING
  6 .debug_info   00006d94  00000000  00000000  00000ef8  2**0
                  CONTENTS, READONLY, DEBUGGING
  7 .debug_abbrev 0000148f  00000000  00000000  00007c8c  2**0
                  CONTENTS, READONLY, DEBUGGING
  8 .debug_line   00001268  00000000  00000000  0000911b  2**0
                  CONTENTS, READONLY, DEBUGGING
  9 .debug_frame  000006b4  00000000  00000000  0000a384  2**2
                  CONTENTS, READONLY, DEBUGGING
 10 .debug_str    00001dab  00000000  00000000  0000aa38  2**0
                  CONTENTS, READONLY, DEBUGGING
 11 .debug_loc    00002546  00000000  00000000  0000c7e3  2**0
                  CONTENTS, READONLY, DEBUGGING
 12 .debug_ranges 00000208  00000000  00000000  0000ed29  2**0
                  CONTENTS, READONLY, DEBUGGING

Disassembly of section .text:

00000000 <__vectors>:
   0:	0c 94 35 00 	jmp	0x6a	; 0x6a <__ctors_end>
   4:	0c 94 5d 00 	jmp	0xba	; 0xba <__bad_interrupt>
   8:	0c 94 5d 00 	jmp	0xba	; 0xba <__bad_interrupt>
   c:	0c 94 5d 00 	jmp	0xba	; 0xba <__bad_interrupt>
  10:	0c 94 5d 00 	jmp	0xba	; 0xba <__bad_interrupt>
  14:	0c 94 5d 00 	jmp	0xba	; 0xba <__bad_interrupt>
  18:	0c 94 5d 00 	jmp	0xba	; 0xba <__bad_interrupt>
  1c:	0c 94 5d 00 	jmp	0xba	; 0xba <__bad_interrupt>
  20:	0c 94 5d 00 	jmp	0xba	; 0xba <__bad_interrupt>
  24:	0c 94 5d 00 	jmp	0xba	; 0xba <__bad_interrupt>
  28:	0c 94 5d 00 	jmp	0xba	; 0xba <__bad_interrupt>
  2c:	0c 94 5d 00 	jmp	0xba	; 0xba <__bad_interrupt>
  30:	0c 94 5d 00 	jmp	0xba	; 0xba <__bad_interrupt>
  34:	0c 94 5d 00 	jmp	0xba	; 0xba <__bad_interrupt>
  38:	0c 94 5d 00 	jmp	0xba	; 0xba <__bad_interrupt>
  3c:	0c 94 5d 00 	jmp	0xba	; 0xba <__bad_interrupt>
  40:	0c 94 4f 04 	jmp	0x89e	; 0x89e <__vector_16>
  44:	0c 94 5d 00 	jmp	0xba	; 0xba <__bad_interrupt>
  48:	0c 94 b6 02 	jmp	0x56c	; 0x56c <__vector_18>
  4c:	0c 94 e8 02 	jmp	0x5d0	; 0x5d0 <__vector_19>
  50:	0c 94 5d 00 	jmp	0xba	; 0xba <__bad_interrupt>
  54:	0c 94 5d 00 	jmp	0xba	; 0xba <__bad_interrupt>
  58:	0c 94 5d 00 	jmp	0xba	; 0xba <__bad_interrupt>
  5c:	0c 94 5d 00 	jmp	0xba	; 0xba <__bad_interrupt>
  60:	0c 94 5d 00 	jmp	0xba	; 0xba <__bad_interrupt>
  64:	0c 94 5d 00 	jmp	0xba	; 0xba <__bad_interrupt>

00000068 <__ctors_start>:
  68:	18 03       	fmul	r17, r16

0000006a <__ctors_end>:
  6a:	11 24       	eor	r1, r1
  6c:	1f be       	out	0x3f, r1	; 63
  6e:	cf ef       	ldi	r28, 0xFF	; 255
  70:	d8 e0       	ldi	r29, 0x08	; 8
  72:	de bf       	out	0x3e, r29	; 62
  74:	cd bf       	out	0x3d, r28	; 61

00000076 <__do_copy_data>:
  76:	12 e0       	ldi	r17, 0x02	; 2
  78:	a0 e0       	ldi	r26, 0x00	; 0
  7a:	b1 e0       	ldi	r27, 0x01	; 1
  7c:	e6 e4       	ldi	r30, 0x46	; 70
  7e:	fa e0       	ldi	r31, 0x0A	; 10
  80:	02 c0       	rjmp	.+4      	; 0x86 <__do_copy_data+0x10>
  82:	05 90       	lpm	r0, Z+
  84:	0d 92       	st	X+, r0
  86:	a6 38       	cpi	r26, 0x86	; 134
  88:	b1 07       	cpc	r27, r17
  8a:	d9 f7       	brne	.-10     	; 0x82 <__do_copy_data+0xc>

0000008c <__do_clear_bss>:
  8c:	23 e0       	ldi	r18, 0x03	; 3
  8e:	a6 e8       	ldi	r26, 0x86	; 134
  90:	b2 e0       	ldi	r27, 0x02	; 2
  92:	01 c0       	rjmp	.+2      	; 0x96 <.do_clear_bss_start>

00000094 <.do_clear_bss_loop>:
  94:	1d 92       	st	X+, r1

00000096 <.do_clear_bss_start>:
  96:	ac 32       	cpi	r26, 0x2C	; 44
  98:	b2 07       	cpc	r27, r18
  9a:	e1 f7       	brne	.-8      	; 0x94 <.do_clear_bss_loop>

0000009c <__do_global_ctors>:
  9c:	10 e0       	ldi	r17, 0x00	; 0
  9e:	c5 e3       	ldi	r28, 0x35	; 53
  a0:	d0 e0       	ldi	r29, 0x00	; 0
  a2:	04 c0       	rjmp	.+8      	; 0xac <__do_global_ctors+0x10>
  a4:	21 97       	sbiw	r28, 0x01	; 1
  a6:	fe 01       	movw	r30, r28
  a8:	0e 94 1b 05 	call	0xa36	; 0xa36 <__tablejump2__>
  ac:	c4 33       	cpi	r28, 0x34	; 52
  ae:	d1 07       	cpc	r29, r17
  b0:	c9 f7       	brne	.-14     	; 0xa4 <__do_global_ctors+0x8>
  b2:	0e 94 46 03 	call	0x68c	; 0x68c <main>
  b6:	0c 94 21 05 	jmp	0xa42	; 0xa42 <_exit>

000000ba <__bad_interrupt>:
  ba:	0c 94 00 00 	jmp	0	; 0x0 <__vectors>

000000be <setup>:
  be:	26 e0       	ldi	r18, 0x06	; 6
  c0:	40 e8       	ldi	r20, 0x80	; 128
  c2:	55 e2       	ldi	r21, 0x25	; 37
  c4:	60 e0       	ldi	r22, 0x00	; 0
  c6:	70 e0       	ldi	r23, 0x00	; 0
  c8:	86 e8       	ldi	r24, 0x86	; 134
  ca:	92 e0       	ldi	r25, 0x02	; 2
  cc:	0e 94 51 02 	call	0x4a2	; 0x4a2 <_ZN14HardwareSerial5beginEmh>
  d0:	08 95       	ret

000000d2 <loop>:
  d2:	2f 92       	push	r2
  d4:	3f 92       	push	r3
  d6:	4f 92       	push	r4
  d8:	5f 92       	push	r5
  da:	6f 92       	push	r6
  dc:	7f 92       	push	r7
  de:	8f 92       	push	r8
  e0:	9f 92       	push	r9
  e2:	af 92       	push	r10
  e4:	bf 92       	push	r11
  e6:	df 92       	push	r13
  e8:	ef 92       	push	r14
  ea:	ff 92       	push	r15
  ec:	0f 93       	push	r16
  ee:	1f 93       	push	r17
  f0:	cf 93       	push	r28
  f2:	df 93       	push	r29
  f4:	cd b7       	in	r28, 0x3d	; 61
  f6:	de b7       	in	r29, 0x3e	; 62
  f8:	ca 5a       	subi	r28, 0xAA	; 170
  fa:	d2 40       	sbci	r29, 0x02	; 2
  fc:	0f b6       	in	r0, 0x3f	; 63
  fe:	f8 94       	cli
 100:	de bf       	out	0x3e, r29	; 62
 102:	0f be       	out	0x3f, r0	; 63
 104:	cd bf       	out	0x3d, r28	; 61
 106:	fe 01       	movw	r30, r28
 108:	31 96       	adiw	r30, 0x01	; 1
 10a:	84 ea       	ldi	r24, 0xA4	; 164
 10c:	92 e0       	ldi	r25, 0x02	; 2
 10e:	df 01       	movw	r26, r30
 110:	9c 01       	movw	r18, r24
 112:	1d 92       	st	X+, r1
 114:	21 50       	subi	r18, 0x01	; 1
 116:	30 40       	sbci	r19, 0x00	; 0
 118:	e1 f7       	brne	.-8      	; 0x112 <loop+0x40>
 11a:	0e 94 99 04 	call	0x932	; 0x932 <micros>
 11e:	c9 55       	subi	r28, 0x59	; 89
 120:	dd 4f       	sbci	r29, 0xFD	; 253
 122:	68 83       	st	Y, r22
 124:	79 83       	std	Y+1, r23	; 0x01
 126:	8a 83       	std	Y+2, r24	; 0x02
 128:	9b 83       	std	Y+3, r25	; 0x03
 12a:	c7 5a       	subi	r28, 0xA7	; 167
 12c:	d2 40       	sbci	r29, 0x02	; 2
 12e:	0f 2e       	mov	r0, r31
 130:	f2 e5       	ldi	r31, 0x52	; 82
 132:	ef 2e       	mov	r14, r31
 134:	f2 e0       	ldi	r31, 0x02	; 2
 136:	ff 2e       	mov	r15, r31
 138:	f0 2d       	mov	r31, r0
 13a:	49 ea       	ldi	r20, 0xA9	; 169
 13c:	51 e0       	ldi	r21, 0x01	; 1
 13e:	cb 55       	subi	r28, 0x5B	; 91
 140:	dd 4f       	sbci	r29, 0xFD	; 253
 142:	59 83       	std	Y+1, r21	; 0x01
 144:	48 83       	st	Y, r20
 146:	c5 5a       	subi	r28, 0xA5	; 165
 148:	d2 40       	sbci	r29, 0x02	; 2
 14a:	0f 2e       	mov	r0, r31
 14c:	fd e0       	ldi	r31, 0x0D	; 13
 14e:	df 2e       	mov	r13, r31
 150:	f0 2d       	mov	r31, r0
 152:	9e 01       	movw	r18, r28
 154:	2f 55       	subi	r18, 0x5F	; 95
 156:	3d 4f       	sbci	r19, 0xFD	; 253
 158:	68 ea       	ldi	r22, 0xA8	; 168
 15a:	71 e0       	ldi	r23, 0x01	; 1
 15c:	41 e5       	ldi	r20, 0x51	; 81
 15e:	52 e0       	ldi	r21, 0x02	; 2
 160:	1e 01       	movw	r2, r28
 162:	83 e0       	ldi	r24, 0x03	; 3
 164:	28 1a       	sub	r2, r24
 166:	31 08       	sbc	r3, r1
 168:	da 01       	movw	r26, r20
 16a:	8c 91       	ld	r24, X
 16c:	fb 01       	movw	r30, r22
 16e:	90 81       	ld	r25, Z
 170:	89 02       	muls	r24, r25
 172:	20 01       	movw	r4, r0
 174:	11 24       	eor	r1, r1
 176:	05 2c       	mov	r0, r5
 178:	00 0c       	add	r0, r0
 17a:	66 08       	sbc	r6, r6
 17c:	77 08       	sbc	r7, r7
 17e:	ca 01       	movw	r24, r20
 180:	0c 97       	sbiw	r24, 0x0c	; 12
 182:	db 01       	movw	r26, r22
 184:	fa 01       	movw	r30, r20
 186:	1d 97       	sbiw	r26, 0x0d	; 13
 188:	12 91       	ld	r17, -Z
 18a:	0c 91       	ld	r16, X
 18c:	10 02       	muls	r17, r16
 18e:	40 01       	movw	r8, r0
 190:	11 24       	eor	r1, r1
 192:	09 2c       	mov	r0, r9
 194:	00 0c       	add	r0, r0
 196:	aa 08       	sbc	r10, r10
 198:	bb 08       	sbc	r11, r11
 19a:	48 0c       	add	r4, r8
 19c:	59 1c       	adc	r5, r9
 19e:	6a 1c       	adc	r6, r10
 1a0:	7b 1c       	adc	r7, r11
 1a2:	e8 17       	cp	r30, r24
 1a4:	f9 07       	cpc	r31, r25
 1a6:	79 f7       	brne	.-34     	; 0x186 <loop+0xb4>
 1a8:	d7 01       	movw	r26, r14
 1aa:	ee 91       	ld	r30, -X
 1ac:	7d 01       	movw	r14, r26
 1ae:	cb 55       	subi	r28, 0x5B	; 91
 1b0:	dd 4f       	sbci	r29, 0xFD	; 253
 1b2:	a8 81       	ld	r26, Y
 1b4:	b9 81       	ldd	r27, Y+1	; 0x01
 1b6:	c5 5a       	subi	r28, 0xA5	; 165
 1b8:	d2 40       	sbci	r29, 0x02	; 2
 1ba:	8e 91       	ld	r24, -X
 1bc:	cb 55       	subi	r28, 0x5B	; 91
 1be:	dd 4f       	sbci	r29, 0xFD	; 253
 1c0:	b9 83       	std	Y+1, r27	; 0x01
 1c2:	a8 83       	st	Y, r26
 1c4:	c5 5a       	subi	r28, 0xA5	; 165
 1c6:	d2 40       	sbci	r29, 0x02	; 2
 1c8:	08 2e       	mov	r0, r24
 1ca:	00 0c       	add	r0, r0
 1cc:	99 0b       	sbc	r25, r25
 1ce:	8e 0f       	add	r24, r30
 1d0:	91 1d       	adc	r25, r1
 1d2:	e7 fd       	sbrc	r30, 7
 1d4:	9a 95       	dec	r25
 1d6:	09 2e       	mov	r0, r25
 1d8:	00 0c       	add	r0, r0
 1da:	aa 0b       	sbc	r26, r26
 1dc:	bb 0b       	sbc	r27, r27
 1de:	f9 01       	movw	r30, r18
 1e0:	80 80       	ld	r8, Z
 1e2:	91 80       	ldd	r9, Z+1	; 0x01
 1e4:	a2 80       	ldd	r10, Z+2	; 0x02
 1e6:	b3 80       	ldd	r11, Z+3	; 0x03
 1e8:	88 0d       	add	r24, r8
 1ea:	99 1d       	adc	r25, r9
 1ec:	aa 1d       	adc	r26, r10
 1ee:	bb 1d       	adc	r27, r11
 1f0:	48 0e       	add	r4, r24
 1f2:	59 1e       	adc	r5, r25
 1f4:	6a 1e       	adc	r6, r26
 1f6:	7b 1e       	adc	r7, r27
 1f8:	40 82       	st	Z, r4
 1fa:	51 82       	std	Z+1, r5	; 0x01
 1fc:	62 82       	std	Z+2, r6	; 0x02
 1fe:	73 82       	std	Z+3, r7	; 0x03
 200:	da 94       	dec	r13
 202:	dd 20       	and	r13, r13
 204:	19 f0       	breq	.+6      	; 0x20c <loop+0x13a>
 206:	61 50       	subi	r22, 0x01	; 1
 208:	71 09       	sbc	r23, r1
 20a:	08 c0       	rjmp	.+16     	; 0x21c <loop+0x14a>
 20c:	4d 50       	subi	r20, 0x0D	; 13
 20e:	51 09       	sbc	r21, r1
 210:	64 5f       	subi	r22, 0xF4	; 244
 212:	7f 4f       	sbci	r23, 0xFF	; 255
 214:	0f 2e       	mov	r0, r31
 216:	fd e0       	ldi	r31, 0x0D	; 13
 218:	df 2e       	mov	r13, r31
 21a:	f0 2d       	mov	r31, r0
 21c:	24 50       	subi	r18, 0x04	; 4
 21e:	31 09       	sbc	r19, r1
 220:	22 15       	cp	r18, r2
 222:	33 05       	cpc	r19, r3
 224:	09 f0       	breq	.+2      	; 0x228 <loop+0x156>
 226:	a0 cf       	rjmp	.-192    	; 0x168 <loop+0x96>
 228:	0e 94 99 04 	call	0x932	; 0x932 <micros>
 22c:	4b 01       	movw	r8, r22
 22e:	5c 01       	movw	r10, r24
 230:	c9 55       	subi	r28, 0x59	; 89
 232:	dd 4f       	sbci	r29, 0xFD	; 253
 234:	28 81       	ld	r18, Y
 236:	39 81       	ldd	r19, Y+1	; 0x01
 238:	4a 81       	ldd	r20, Y+2	; 0x02
 23a:	5b 81       	ldd	r21, Y+3	; 0x03
 23c:	c7 5a       	subi	r28, 0xA7	; 167
 23e:	d2 40       	sbci	r29, 0x02	; 2
 240:	82 1a       	sub	r8, r18
 242:	93 0a       	sbc	r9, r19
 244:	a4 0a       	sbc	r10, r20
 246:	b5 0a       	sbc	r11, r21
 248:	e0 91 86 02 	lds	r30, 0x0286	; 0x800286 <__data_end>
 24c:	f0 91 87 02 	lds	r31, 0x0287	; 0x800287 <__data_end+0x1>
 250:	02 80       	ldd	r0, Z+2	; 0x02
 252:	f3 81       	ldd	r31, Z+3	; 0x03
 254:	e0 2d       	mov	r30, r0
 256:	42 e1       	ldi	r20, 0x12	; 18
 258:	50 e0       	ldi	r21, 0x00	; 0
 25a:	62 e5       	ldi	r22, 0x52	; 82
 25c:	72 e0       	ldi	r23, 0x02	; 2
 25e:	86 e8       	ldi	r24, 0x86	; 134
 260:	92 e0       	ldi	r25, 0x02	; 2
 262:	09 95       	icall
 264:	2a e0       	ldi	r18, 0x0A	; 10
 266:	30 e0       	ldi	r19, 0x00	; 0
 268:	b5 01       	movw	r22, r10
 26a:	a4 01       	movw	r20, r8
 26c:	86 e8       	ldi	r24, 0x86	; 134
 26e:	92 e0       	ldi	r25, 0x02	; 2
 270:	0e 94 f5 03 	call	0x7ea	; 0x7ea <_ZN5Print7printlnEmi>
 274:	8e 01       	movw	r16, r28
 276:	0f 5f       	subi	r16, 0xFF	; 255
 278:	1f 4f       	sbci	r17, 0xFF	; 255
 27a:	7e 01       	movw	r14, r28
 27c:	3b e5       	ldi	r19, 0x5B	; 91
 27e:	e3 1a       	sub	r14, r19
 280:	3d ef       	ldi	r19, 0xFD	; 253
 282:	f3 0a       	sbc	r15, r19
 284:	58 01       	movw	r10, r16
 286:	44 e3       	ldi	r20, 0x34	; 52
 288:	a4 0e       	add	r10, r20
 28a:	b1 1c       	adc	r11, r1
 28c:	d8 01       	movw	r26, r16
 28e:	4d 91       	ld	r20, X+
 290:	5d 91       	ld	r21, X+
 292:	6d 91       	ld	r22, X+
 294:	7d 91       	ld	r23, X+
 296:	8d 01       	movw	r16, r26
 298:	2a e0       	ldi	r18, 0x0A	; 10
 29a:	30 e0       	ldi	r19, 0x00	; 0
 29c:	86 e8       	ldi	r24, 0x86	; 134
 29e:	92 e0       	ldi	r25, 0x02	; 2
 2a0:	0e 94 07 04 	call	0x80e	; 0x80e <_ZN5Print5printEli>
 2a4:	69 e0       	ldi	r22, 0x09	; 9
 2a6:	86 e8       	ldi	r24, 0x86	; 134
 2a8:	92 e0       	ldi	r25, 0x02	; 2
 2aa:	0e 94 94 03 	call	0x728	; 0x728 <_ZN5Print5printEc>
 2ae:	0a 15       	cp	r16, r10
 2b0:	1b 05       	cpc	r17, r11
 2b2:	61 f7       	brne	.-40     	; 0x28c <loop+0x1ba>
 2b4:	6a e0       	ldi	r22, 0x0A	; 10
 2b6:	86 e8       	ldi	r24, 0x86	; 134
 2b8:	92 e0       	ldi	r25, 0x02	; 2
 2ba:	0e 94 94 03 	call	0x728	; 0x728 <_ZN5Print5printEc>
 2be:	85 01       	movw	r16, r10
 2c0:	ae 14       	cp	r10, r14
 2c2:	bf 04       	cpc	r11, r15
 2c4:	f9 f6       	brne	.-66     	; 0x284 <loop+0x1b2>
 2c6:	c6 55       	subi	r28, 0x56	; 86
 2c8:	dd 4f       	sbci	r29, 0xFD	; 253
 2ca:	0f b6       	in	r0, 0x3f	; 63
 2cc:	f8 94       	cli
 2ce:	de bf       	out	0x3e, r29	; 62
 2d0:	0f be       	out	0x3f, r0	; 63
 2d2:	cd bf       	out	0x3d, r28	; 61
 2d4:	df 91       	pop	r29
 2d6:	cf 91       	pop	r28
 2d8:	1f 91       	pop	r17
 2da:	0f 91       	pop	r16
 2dc:	ff 90       	pop	r15
 2de:	ef 90       	pop	r14
 2e0:	df 90       	pop	r13
 2e2:	bf 90       	pop	r11
 2e4:	af 90       	pop	r10
 2e6:	9f 90       	pop	r9
 2e8:	8f 90       	pop	r8
 2ea:	7f 90       	pop	r7
 2ec:	6f 90       	pop	r6
 2ee:	5f 90       	pop	r5
 2f0:	4f 90       	pop	r4
 2f2:	3f 90       	pop	r3
 2f4:	2f 90       	pop	r2
 2f6:	08 95       	ret

000002f8 <_ZN14HardwareSerial9availableEv>:
 2f8:	fc 01       	movw	r30, r24
 2fa:	91 8d       	ldd	r25, Z+25	; 0x19
 2fc:	22 8d       	ldd	r18, Z+26	; 0x1a
 2fe:	89 2f       	mov	r24, r25
 300:	90 e0       	ldi	r25, 0x00	; 0
 302:	80 5c       	subi	r24, 0xC0	; 192
 304:	9f 4f       	sbci	r25, 0xFF	; 255
 306:	82 1b       	sub	r24, r18
 308:	91 09       	sbc	r25, r1
 30a:	8f 73       	andi	r24, 0x3F	; 63
 30c:	99 27       	eor	r25, r25
 30e:	08 95       	ret

00000310 <_ZN14HardwareSerial4peekEv>:
 310:	fc 01       	movw	r30, r24
 312:	91 8d       	ldd	r25, Z+25	; 0x19
 314:	82 8d       	ldd	r24, Z+26	; 0x1a
 316:	98 17       	cp	r25, r24
 318:	31 f0       	breq	.+12     	; 0x326 <_ZN14HardwareSerial4peekEv+0x16>
 31a:	82 8d       	ldd	r24, Z+26	; 0x1a
 31c:	e8 0f       	add	r30, r24
 31e:	f1 1d       	adc	r31, r1
 320:	85 8d       	ldd	r24, Z+29	; 0x1d
 322:	90 e0       	ldi	r25, 0x00	; 0
 324:	08 95       	ret
 326:	8f ef       	ldi	r24, 0xFF	; 255
 328:	9f ef       	ldi	r25, 0xFF	; 255
 32a:	08 95       	ret

0000032c <_ZN14HardwareSerial4readEv>:
 32c:	fc 01       	movw	r30, r24
 32e:	91 8d       	ldd	r25, Z+25	; 0x19
 330:	82 8d       	ldd	r24, Z+26	; 0x1a
 332:	98 17       	cp	r25, r24
 334:	61 f0       	breq	.+24     	; 0x34e <_ZN14HardwareSerial4readEv+0x22>
 336:	82 8d       	ldd	r24, Z+26	; 0x1a
 338:	df 01       	movw	r26, r30
 33a:	a8 0f       	add	r26, r24
 33c:	b1 1d       	adc	r27, r1
 33e:	5d 96       	adiw	r26, 0x1d	; 29
 340:	8c 91       	ld	r24, X
 342:	92 8d       	ldd	r25, Z+26	; 0x1a
 344:	9f 5f       	subi	r25, 0xFF	; 255
 346:	9f 73       	andi	r25, 0x3F	; 63
 348:	92 8f       	std	Z+26, r25	; 0x1a
 34a:	90 e0       	ldi	r25, 0x00	; 0
 34c:	08 95       	ret
 34e:	8f ef       	ldi	r24, 0xFF	; 255
 350:	9f ef       	ldi	r25, 0xFF	; 255
 352:	08 95       	ret

00000354 <_ZN14HardwareSerial17availableForWriteEv>:
 354:	fc 01       	movw	r30, r24
 356:	53 8d       	ldd	r21, Z+27	; 0x1b
 358:	44 8d       	ldd	r20, Z+28	; 0x1c
 35a:	25 2f       	mov	r18, r21
 35c:	30 e0       	ldi	r19, 0x00	; 0
 35e:	84 2f       	mov	r24, r20
 360:	90 e0       	ldi	r25, 0x00	; 0
 362:	82 1b       	sub	r24, r18
 364:	93 0b       	sbc	r25, r19
 366:	54 17       	cp	r21, r20
 368:	10 f0       	brcs	.+4      	; 0x36e <_ZN14HardwareSerial17availableForWriteEv+0x1a>
 36a:	cf 96       	adiw	r24, 0x3f	; 63
 36c:	08 95       	ret
 36e:	01 97       	sbiw	r24, 0x01	; 1
 370:	08 95       	ret

00000372 <_Z14serialEventRunv>:
 372:	8e e0       	ldi	r24, 0x0E	; 14
 374:	93 e0       	ldi	r25, 0x03	; 3
 376:	89 2b       	or	r24, r25
 378:	49 f0       	breq	.+18     	; 0x38c <_Z14serialEventRunv+0x1a>
 37a:	80 e0       	ldi	r24, 0x00	; 0
 37c:	90 e0       	ldi	r25, 0x00	; 0
 37e:	89 2b       	or	r24, r25
 380:	29 f0       	breq	.+10     	; 0x38c <_Z14serialEventRunv+0x1a>
 382:	0e 94 0e 03 	call	0x61c	; 0x61c <_Z17Serial0_availablev>
 386:	81 11       	cpse	r24, r1
 388:	0c 94 00 00 	jmp	0	; 0x0 <__vectors>
 38c:	08 95       	ret

0000038e <_ZN14HardwareSerial17_tx_udr_empty_irqEv>:
 38e:	fc 01       	movw	r30, r24
 390:	84 8d       	ldd	r24, Z+28	; 0x1c
 392:	df 01       	movw	r26, r30
 394:	a8 0f       	add	r26, r24
 396:	b1 1d       	adc	r27, r1
 398:	a3 5a       	subi	r26, 0xA3	; 163
 39a:	bf 4f       	sbci	r27, 0xFF	; 255
 39c:	2c 91       	ld	r18, X
 39e:	84 8d       	ldd	r24, Z+28	; 0x1c
 3a0:	90 e0       	ldi	r25, 0x00	; 0
 3a2:	01 96       	adiw	r24, 0x01	; 1
 3a4:	8f 73       	andi	r24, 0x3F	; 63
 3a6:	99 27       	eor	r25, r25
 3a8:	84 8f       	std	Z+28, r24	; 0x1c
 3aa:	a6 89       	ldd	r26, Z+22	; 0x16
 3ac:	b7 89       	ldd	r27, Z+23	; 0x17
 3ae:	2c 93       	st	X, r18
 3b0:	a0 89       	ldd	r26, Z+16	; 0x10
 3b2:	b1 89       	ldd	r27, Z+17	; 0x11
 3b4:	8c 91       	ld	r24, X
 3b6:	80 64       	ori	r24, 0x40	; 64
 3b8:	8c 93       	st	X, r24
 3ba:	93 8d       	ldd	r25, Z+27	; 0x1b
 3bc:	84 8d       	ldd	r24, Z+28	; 0x1c
 3be:	98 13       	cpse	r25, r24
 3c0:	06 c0       	rjmp	.+12     	; 0x3ce <_ZN14HardwareSerial17_tx_udr_empty_irqEv+0x40>
 3c2:	02 88       	ldd	r0, Z+18	; 0x12
 3c4:	f3 89       	ldd	r31, Z+19	; 0x13
 3c6:	e0 2d       	mov	r30, r0
 3c8:	80 81       	ld	r24, Z
 3ca:	8f 7d       	andi	r24, 0xDF	; 223
 3cc:	80 83       	st	Z, r24
 3ce:	08 95       	ret

000003d0 <_ZN14HardwareSerial5writeEh>:
 3d0:	ef 92       	push	r14
 3d2:	ff 92       	push	r15
 3d4:	0f 93       	push	r16
 3d6:	1f 93       	push	r17
 3d8:	cf 93       	push	r28
 3da:	df 93       	push	r29
 3dc:	ec 01       	movw	r28, r24
 3de:	81 e0       	ldi	r24, 0x01	; 1
 3e0:	88 8f       	std	Y+24, r24	; 0x18
 3e2:	9b 8d       	ldd	r25, Y+27	; 0x1b
 3e4:	8c 8d       	ldd	r24, Y+28	; 0x1c
 3e6:	98 13       	cpse	r25, r24
 3e8:	05 c0       	rjmp	.+10     	; 0x3f4 <_ZN14HardwareSerial5writeEh+0x24>
 3ea:	e8 89       	ldd	r30, Y+16	; 0x10
 3ec:	f9 89       	ldd	r31, Y+17	; 0x11
 3ee:	80 81       	ld	r24, Z
 3f0:	85 fd       	sbrc	r24, 5
 3f2:	24 c0       	rjmp	.+72     	; 0x43c <__LOCK_REGION_LENGTH__+0x3c>
 3f4:	f6 2e       	mov	r15, r22
 3f6:	0b 8d       	ldd	r16, Y+27	; 0x1b
 3f8:	10 e0       	ldi	r17, 0x00	; 0
 3fa:	0f 5f       	subi	r16, 0xFF	; 255
 3fc:	1f 4f       	sbci	r17, 0xFF	; 255
 3fe:	0f 73       	andi	r16, 0x3F	; 63
 400:	11 27       	eor	r17, r17
 402:	e0 2e       	mov	r14, r16
 404:	8c 8d       	ldd	r24, Y+28	; 0x1c
 406:	e8 12       	cpse	r14, r24
 408:	0c c0       	rjmp	.+24     	; 0x422 <__LOCK_REGION_LENGTH__+0x22>
 40a:	0f b6       	in	r0, 0x3f	; 63
 40c:	07 fc       	sbrc	r0, 7
 40e:	fa cf       	rjmp	.-12     	; 0x404 <__LOCK_REGION_LENGTH__+0x4>
 410:	e8 89       	ldd	r30, Y+16	; 0x10
 412:	f9 89       	ldd	r31, Y+17	; 0x11
 414:	80 81       	ld	r24, Z
 416:	85 ff       	sbrs	r24, 5
 418:	f5 cf       	rjmp	.-22     	; 0x404 <__LOCK_REGION_LENGTH__+0x4>
 41a:	ce 01       	movw	r24, r28
 41c:	0e 94 c7 01 	call	0x38e	; 0x38e <_ZN14HardwareSerial17_tx_udr_empty_irqEv>
 420:	f1 cf       	rjmp	.-30     	; 0x404 <__LOCK_REGION_LENGTH__+0x4>
 422:	8b 8d       	ldd	r24, Y+27	; 0x1b
 424:	fe 01       	movw	r30, r28
 426:	e8 0f       	add	r30, r24
 428:	f1 1d       	adc	r31, r1
 42a:	e3 5a       	subi	r30, 0xA3	; 163
 42c:	ff 4f       	sbci	r31, 0xFF	; 255
 42e:	f0 82       	st	Z, r15
 430:	0b 8f       	std	Y+27, r16	; 0x1b
 432:	ea 89       	ldd	r30, Y+18	; 0x12
 434:	fb 89       	ldd	r31, Y+19	; 0x13
 436:	80 81       	ld	r24, Z
 438:	80 62       	ori	r24, 0x20	; 32
 43a:	07 c0       	rjmp	.+14     	; 0x44a <__LOCK_REGION_LENGTH__+0x4a>
 43c:	ee 89       	ldd	r30, Y+22	; 0x16
 43e:	ff 89       	ldd	r31, Y+23	; 0x17
 440:	60 83       	st	Z, r22
 442:	e8 89       	ldd	r30, Y+16	; 0x10
 444:	f9 89       	ldd	r31, Y+17	; 0x11
 446:	80 81       	ld	r24, Z
 448:	80 64       	ori	r24, 0x40	; 64
 44a:	80 83       	st	Z, r24
 44c:	81 e0       	ldi	r24, 0x01	; 1
 44e:	90 e0       	ldi	r25, 0x00	; 0
 450:	df 91       	pop	r29
 452:	cf 91       	pop	r28
 454:	1f 91       	pop	r17
 456:	0f 91       	pop	r16
 458:	ff 90       	pop	r15
 45a:	ef 90       	pop	r14
 45c:	08 95       	ret

0000045e <_ZN14HardwareSerial5flushEv>:
 45e:	cf 93       	push	r28
 460:	df 93       	push	r29
 462:	ec 01       	movw	r28, r24
 464:	88 8d       	ldd	r24, Y+24	; 0x18
 466:	88 23       	and	r24, r24
 468:	c9 f0       	breq	.+50     	; 0x49c <_ZN14HardwareSerial5flushEv+0x3e>
 46a:	ea 89       	ldd	r30, Y+18	; 0x12
 46c:	fb 89       	ldd	r31, Y+19	; 0x13
 46e:	80 81       	ld	r24, Z
 470:	85 fd       	sbrc	r24, 5
 472:	05 c0       	rjmp	.+10     	; 0x47e <_ZN14HardwareSerial5flushEv+0x20>
 474:	a8 89       	ldd	r26, Y+16	; 0x10
 476:	b9 89       	ldd	r27, Y+17	; 0x11
 478:	8c 91       	ld	r24, X
 47a:	86 fd       	sbrc	r24, 6
 47c:	0f c0       	rjmp	.+30     	; 0x49c <_ZN14HardwareSerial5flushEv+0x3e>
 47e:	0f b6       	in	r0, 0x3f	; 63
 480:	07 fc       	sbrc	r0, 7
 482:	f5 cf       	rjmp	.-22     	; 0x46e <_ZN14HardwareSerial5flushEv+0x10>
 484:	80 81       	ld	r24, Z
 486:	85 ff       	sbrs	r24, 5
 488:	f2 cf       	rjmp	.-28     	; 0x46e <_ZN14HardwareSerial5flushEv+0x10>
 48a:	a8 89       	ldd	r26, Y+16	; 0x10
 48c:	b9 89       	ldd	r27, Y+17	; 0x11
 48e:	8c 91       	ld	r24, X
 490:	85 ff       	sbrs	r24, 5
 492:	ed cf       	rjmp	.-38     	; 0x46e <_ZN14HardwareSerial5flushEv+0x10>
 494:	ce 01       	movw	r24, r28
 496:	0e 94 c7 01 	call	0x38e	; 0x38e <_ZN14HardwareSerial17_tx_udr_empty_irqEv>
 49a:	e7 cf       	rjmp	.-50     	; 0x46a <_ZN14HardwareSerial5flushEv+0xc>
 49c:	df 91       	pop	r29
 49e:	cf 91       	pop	r28
 4a0:	08 95       	ret

000004a2 <_ZN14HardwareSerial5beginEmh>:
 4a2:	cf 92       	push	r12
 4a4:	df 92       	push	r13
 4a6:	ef 92       	push	r14
 4a8:	ff 92       	push	r15
 4aa:	1f 93       	push	r17
 4ac:	cf 93       	push	r28
 4ae:	df 93       	push	r29
 4b0:	ec 01       	movw	r28, r24
 4b2:	6a 01       	movw	r12, r20
 4b4:	7b 01       	movw	r14, r22
 4b6:	12 2f       	mov	r17, r18
 4b8:	e8 89       	ldd	r30, Y+16	; 0x10
 4ba:	f9 89       	ldd	r31, Y+17	; 0x11
 4bc:	82 e0       	ldi	r24, 0x02	; 2
 4be:	80 83       	st	Z, r24
 4c0:	41 15       	cp	r20, r1
 4c2:	51 4e       	sbci	r21, 0xE1	; 225
 4c4:	61 05       	cpc	r22, r1
 4c6:	71 05       	cpc	r23, r1
 4c8:	b1 f0       	breq	.+44     	; 0x4f6 <_ZN14HardwareSerial5beginEmh+0x54>
 4ca:	60 e0       	ldi	r22, 0x00	; 0
 4cc:	79 e0       	ldi	r23, 0x09	; 9
 4ce:	8d e3       	ldi	r24, 0x3D	; 61
 4d0:	90 e0       	ldi	r25, 0x00	; 0
 4d2:	a7 01       	movw	r20, r14
 4d4:	96 01       	movw	r18, r12
 4d6:	0e 94 f9 04 	call	0x9f2	; 0x9f2 <__udivmodsi4>
 4da:	da 01       	movw	r26, r20
 4dc:	c9 01       	movw	r24, r18
 4de:	01 97       	sbiw	r24, 0x01	; 1
 4e0:	a1 09       	sbc	r26, r1
 4e2:	b1 09       	sbc	r27, r1
 4e4:	b6 95       	lsr	r27
 4e6:	a7 95       	ror	r26
 4e8:	97 95       	ror	r25
 4ea:	87 95       	ror	r24
 4ec:	9c 01       	movw	r18, r24
 4ee:	21 15       	cp	r18, r1
 4f0:	80 e1       	ldi	r24, 0x10	; 16
 4f2:	38 07       	cpc	r19, r24
 4f4:	a8 f0       	brcs	.+42     	; 0x520 <_ZN14HardwareSerial5beginEmh+0x7e>
 4f6:	e8 89       	ldd	r30, Y+16	; 0x10
 4f8:	f9 89       	ldd	r31, Y+17	; 0x11
 4fa:	10 82       	st	Z, r1
 4fc:	60 e8       	ldi	r22, 0x80	; 128
 4fe:	74 e8       	ldi	r23, 0x84	; 132
 500:	8e e1       	ldi	r24, 0x1E	; 30
 502:	90 e0       	ldi	r25, 0x00	; 0
 504:	a7 01       	movw	r20, r14
 506:	96 01       	movw	r18, r12
 508:	0e 94 f9 04 	call	0x9f2	; 0x9f2 <__udivmodsi4>
 50c:	da 01       	movw	r26, r20
 50e:	c9 01       	movw	r24, r18
 510:	01 97       	sbiw	r24, 0x01	; 1
 512:	a1 09       	sbc	r26, r1
 514:	b1 09       	sbc	r27, r1
 516:	b6 95       	lsr	r27
 518:	a7 95       	ror	r26
 51a:	97 95       	ror	r25
 51c:	87 95       	ror	r24
 51e:	9c 01       	movw	r18, r24
 520:	ec 85       	ldd	r30, Y+12	; 0x0c
 522:	fd 85       	ldd	r31, Y+13	; 0x0d
 524:	30 83       	st	Z, r19
 526:	ee 85       	ldd	r30, Y+14	; 0x0e
 528:	ff 85       	ldd	r31, Y+15	; 0x0f
 52a:	20 83       	st	Z, r18
 52c:	18 8e       	std	Y+24, r1	; 0x18
 52e:	ec 89       	ldd	r30, Y+20	; 0x14
 530:	fd 89       	ldd	r31, Y+21	; 0x15
 532:	10 83       	st	Z, r17
 534:	ea 89       	ldd	r30, Y+18	; 0x12
 536:	fb 89       	ldd	r31, Y+19	; 0x13
 538:	80 81       	ld	r24, Z
 53a:	80 61       	ori	r24, 0x10	; 16
 53c:	80 83       	st	Z, r24
 53e:	ea 89       	ldd	r30, Y+18	; 0x12
 540:	fb 89       	ldd	r31, Y+19	; 0x13
 542:	80 81       	ld	r24, Z
 544:	88 60       	ori	r24, 0x08	; 8
 546:	80 83       	st	Z, r24
 548:	ea 89       	ldd	r30, Y+18	; 0x12
 54a:	fb 89       	ldd	r31, Y+19	; 0x13
 54c:	80 81       	ld	r24, Z
 54e:	80 68       	ori	r24, 0x80	; 128
 550:	80 83       	st	Z, r24
 552:	ea 89       	ldd	r30, Y+18	; 0x12
 554:	fb 89       	ldd	r31, Y+19	; 0x13
 556:	80 81       	ld	r24, Z
 558:	8f 7d       	andi	r24, 0xDF	; 223
 55a:	80 83       	st	Z, r24
 55c:	df 91       	pop	r29
 55e:	cf 91       	pop	r28
 560:	1f 91       	pop	r17
 562:	ff 90       	pop	r15
 564:	ef 90       	pop	r14
 566:	df 90       	pop	r13
 568:	cf 90       	pop	r12
 56a:	08 95       	ret

0000056c <__vector_18>:
 56c:	1f 92       	push	r1
 56e:	0f 92       	push	r0
 570:	0f b6       	in	r0, 0x3f	; 63
 572:	0f 92       	push	r0
 574:	11 24       	eor	r1, r1
 576:	2f 93       	push	r18
 578:	8f 93       	push	r24
 57a:	9f 93       	push	r25
 57c:	ef 93       	push	r30
 57e:	ff 93       	push	r31
 580:	e0 91 96 02 	lds	r30, 0x0296	; 0x800296 <__data_end+0x10>
 584:	f0 91 97 02 	lds	r31, 0x0297	; 0x800297 <__data_end+0x11>
 588:	80 81       	ld	r24, Z
 58a:	e0 91 9c 02 	lds	r30, 0x029C	; 0x80029c <__data_end+0x16>
 58e:	f0 91 9d 02 	lds	r31, 0x029D	; 0x80029d <__data_end+0x17>
 592:	82 fd       	sbrc	r24, 2
 594:	12 c0       	rjmp	.+36     	; 0x5ba <__vector_18+0x4e>
 596:	90 81       	ld	r25, Z
 598:	80 91 9f 02 	lds	r24, 0x029F	; 0x80029f <__data_end+0x19>
 59c:	8f 5f       	subi	r24, 0xFF	; 255
 59e:	8f 73       	andi	r24, 0x3F	; 63
 5a0:	20 91 a0 02 	lds	r18, 0x02A0	; 0x8002a0 <__data_end+0x1a>
 5a4:	82 17       	cp	r24, r18
 5a6:	51 f0       	breq	.+20     	; 0x5bc <__vector_18+0x50>
 5a8:	e0 91 9f 02 	lds	r30, 0x029F	; 0x80029f <__data_end+0x19>
 5ac:	f0 e0       	ldi	r31, 0x00	; 0
 5ae:	ea 57       	subi	r30, 0x7A	; 122
 5b0:	fd 4f       	sbci	r31, 0xFD	; 253
 5b2:	95 8f       	std	Z+29, r25	; 0x1d
 5b4:	80 93 9f 02 	sts	0x029F, r24	; 0x80029f <__data_end+0x19>
 5b8:	01 c0       	rjmp	.+2      	; 0x5bc <__vector_18+0x50>
 5ba:	80 81       	ld	r24, Z
 5bc:	ff 91       	pop	r31
 5be:	ef 91       	pop	r30
 5c0:	9f 91       	pop	r25
 5c2:	8f 91       	pop	r24
 5c4:	2f 91       	pop	r18
 5c6:	0f 90       	pop	r0
 5c8:	0f be       	out	0x3f, r0	; 63
 5ca:	0f 90       	pop	r0
 5cc:	1f 90       	pop	r1
 5ce:	18 95       	reti

000005d0 <__vector_19>:
 5d0:	1f 92       	push	r1
 5d2:	0f 92       	push	r0
 5d4:	0f b6       	in	r0, 0x3f	; 63
 5d6:	0f 92       	push	r0
 5d8:	11 24       	eor	r1, r1
 5da:	2f 93       	push	r18
 5dc:	3f 93       	push	r19
 5de:	4f 93       	push	r20
 5e0:	5f 93       	push	r21
 5e2:	6f 93       	push	r22
 5e4:	7f 93       	push	r23
 5e6:	8f 93       	push	r24
 5e8:	9f 93       	push	r25
 5ea:	af 93       	push	r26
 5ec:	bf 93       	push	r27
 5ee:	ef 93       	push	r30
 5f0:	ff 93       	push	r31
 5f2:	86 e8       	ldi	r24, 0x86	; 134
 5f4:	92 e0       	ldi	r25, 0x02	; 2
 5f6:	0e 94 c7 01 	call	0x38e	; 0x38e <_ZN14HardwareSerial17_tx_udr_empty_irqEv>
 5fa:	ff 91       	pop	r31
 5fc:	ef 91       	pop	r30
 5fe:	bf 91       	pop	r27
 600:	af 91       	pop	r26
 602:	9f 91       	pop	r25
 604:	8f 91       	pop	r24
 606:	7f 91       	pop	r23
 608:	6f 91       	pop	r22
 60a:	5f 91       	pop	r21
 60c:	4f 91       	pop	r20
 60e:	3f 91       	pop	r19
 610:	2f 91       	pop	r18
 612:	0f 90       	pop	r0
 614:	0f be       	out	0x3f, r0	; 63
 616:	0f 90       	pop	r0
 618:	1f 90       	pop	r1
 61a:	18 95       	reti

0000061c <_Z17Serial0_availablev>:
 61c:	86 e8       	ldi	r24, 0x86	; 134
 61e:	92 e0       	ldi	r25, 0x02	; 2
 620:	0e 94 7c 01 	call	0x2f8	; 0x2f8 <_ZN14HardwareSerial9availableEv>
 624:	21 e0       	ldi	r18, 0x01	; 1
 626:	89 2b       	or	r24, r25
 628:	09 f4       	brne	.+2      	; 0x62c <_Z17Serial0_availablev+0x10>
 62a:	20 e0       	ldi	r18, 0x00	; 0
 62c:	82 2f       	mov	r24, r18
 62e:	08 95       	ret

00000630 <_GLOBAL__sub_I___vector_18>:
 630:	e6 e8       	ldi	r30, 0x86	; 134
 632:	f2 e0       	ldi	r31, 0x02	; 2
 634:	13 82       	std	Z+3, r1	; 0x03
 636:	12 82       	std	Z+2, r1	; 0x02
 638:	88 ee       	ldi	r24, 0xE8	; 232
 63a:	93 e0       	ldi	r25, 0x03	; 3
 63c:	a0 e0       	ldi	r26, 0x00	; 0
 63e:	b0 e0       	ldi	r27, 0x00	; 0
 640:	84 83       	std	Z+4, r24	; 0x04
 642:	95 83       	std	Z+5, r25	; 0x05
 644:	a6 83       	std	Z+6, r26	; 0x06
 646:	b7 83       	std	Z+7, r27	; 0x07
 648:	89 e6       	ldi	r24, 0x69	; 105
 64a:	92 e0       	ldi	r25, 0x02	; 2
 64c:	91 83       	std	Z+1, r25	; 0x01
 64e:	80 83       	st	Z, r24
 650:	85 ec       	ldi	r24, 0xC5	; 197
 652:	90 e0       	ldi	r25, 0x00	; 0
 654:	95 87       	std	Z+13, r25	; 0x0d
 656:	84 87       	std	Z+12, r24	; 0x0c
 658:	84 ec       	ldi	r24, 0xC4	; 196
 65a:	90 e0       	ldi	r25, 0x00	; 0
 65c:	97 87       	std	Z+15, r25	; 0x0f
 65e:	86 87       	std	Z+14, r24	; 0x0e
 660:	80 ec       	ldi	r24, 0xC0	; 192
 662:	90 e0       	ldi	r25, 0x00	; 0
 664:	91 8b       	std	Z+17, r25	; 0x11
 666:	80 8b       	std	Z+16, r24	; 0x10
 668:	81 ec       	ldi	r24, 0xC1	; 193
 66a:	90 e0       	ldi	r25, 0x00	; 0
 66c:	93 8b       	std	Z+19, r25	; 0x13
 66e:	82 8b       	std	Z+18, r24	; 0x12
 670:	82 ec       	ldi	r24, 0xC2	; 194
 672:	90 e0       	ldi	r25, 0x00	; 0
 674:	95 8b       	std	Z+21, r25	; 0x15
 676:	84 8b       	std	Z+20, r24	; 0x14
 678:	86 ec       	ldi	r24, 0xC6	; 198
 67a:	90 e0       	ldi	r25, 0x00	; 0
 67c:	97 8b       	std	Z+23, r25	; 0x17
 67e:	86 8b       	std	Z+22, r24	; 0x16
 680:	11 8e       	std	Z+25, r1	; 0x19
 682:	12 8e       	std	Z+26, r1	; 0x1a
 684:	13 8e       	std	Z+27, r1	; 0x1b
 686:	14 8e       	std	Z+28, r1	; 0x1c
 688:	08 95       	ret

0000068a <initVariant>:
 68a:	08 95       	ret

0000068c <main>:
 68c:	0e 94 be 04 	call	0x97c	; 0x97c <init>
 690:	0e 94 45 03 	call	0x68a	; 0x68a <initVariant>
 694:	0e 94 5f 00 	call	0xbe	; 0xbe <setup>
 698:	c9 eb       	ldi	r28, 0xB9	; 185
 69a:	d1 e0       	ldi	r29, 0x01	; 1
 69c:	0e 94 69 00 	call	0xd2	; 0xd2 <loop>
 6a0:	20 97       	sbiw	r28, 0x00	; 0
 6a2:	e1 f3       	breq	.-8      	; 0x69c <main+0x10>
 6a4:	0e 94 b9 01 	call	0x372	; 0x372 <_Z14serialEventRunv>
 6a8:	f9 cf       	rjmp	.-14     	; 0x69c <main+0x10>

000006aa <_ZN5Print5writeEPKhj>:
 6aa:	cf 92       	push	r12
 6ac:	df 92       	push	r13
 6ae:	ef 92       	push	r14
 6b0:	ff 92       	push	r15
 6b2:	0f 93       	push	r16
 6b4:	1f 93       	push	r17
 6b6:	cf 93       	push	r28
 6b8:	df 93       	push	r29
 6ba:	6c 01       	movw	r12, r24
 6bc:	7a 01       	movw	r14, r20
 6be:	8b 01       	movw	r16, r22
 6c0:	c0 e0       	ldi	r28, 0x00	; 0
 6c2:	d0 e0       	ldi	r29, 0x00	; 0
 6c4:	ce 15       	cp	r28, r14
 6c6:	df 05       	cpc	r29, r15
 6c8:	81 f0       	breq	.+32     	; 0x6ea <_ZN5Print5writeEPKhj+0x40>
 6ca:	d8 01       	movw	r26, r16
 6cc:	6d 91       	ld	r22, X+
 6ce:	8d 01       	movw	r16, r26
 6d0:	d6 01       	movw	r26, r12
 6d2:	ed 91       	ld	r30, X+
 6d4:	fc 91       	ld	r31, X
 6d6:	01 90       	ld	r0, Z+
 6d8:	f0 81       	ld	r31, Z
 6da:	e0 2d       	mov	r30, r0
 6dc:	c6 01       	movw	r24, r12
 6de:	09 95       	icall
 6e0:	89 2b       	or	r24, r25
 6e2:	11 f0       	breq	.+4      	; 0x6e8 <_ZN5Print5writeEPKhj+0x3e>
 6e4:	21 96       	adiw	r28, 0x01	; 1
 6e6:	ee cf       	rjmp	.-36     	; 0x6c4 <_ZN5Print5writeEPKhj+0x1a>
 6e8:	7e 01       	movw	r14, r28
 6ea:	c7 01       	movw	r24, r14
 6ec:	df 91       	pop	r29
 6ee:	cf 91       	pop	r28
 6f0:	1f 91       	pop	r17
 6f2:	0f 91       	pop	r16
 6f4:	ff 90       	pop	r15
 6f6:	ef 90       	pop	r14
 6f8:	df 90       	pop	r13
 6fa:	cf 90       	pop	r12
 6fc:	08 95       	ret

000006fe <_ZN5Print5writeEPKc>:
 6fe:	61 15       	cp	r22, r1
 700:	71 05       	cpc	r23, r1
 702:	79 f0       	breq	.+30     	; 0x722 <_ZN5Print5writeEPKc+0x24>
 704:	fb 01       	movw	r30, r22
 706:	01 90       	ld	r0, Z+
 708:	00 20       	and	r0, r0
 70a:	e9 f7       	brne	.-6      	; 0x706 <_ZN5Print5writeEPKc+0x8>
 70c:	31 97       	sbiw	r30, 0x01	; 1
 70e:	af 01       	movw	r20, r30
 710:	46 1b       	sub	r20, r22
 712:	57 0b       	sbc	r21, r23
 714:	dc 01       	movw	r26, r24
 716:	ed 91       	ld	r30, X+
 718:	fc 91       	ld	r31, X
 71a:	02 80       	ldd	r0, Z+2	; 0x02
 71c:	f3 81       	ldd	r31, Z+3	; 0x03
 71e:	e0 2d       	mov	r30, r0
 720:	09 94       	ijmp
 722:	80 e0       	ldi	r24, 0x00	; 0
 724:	90 e0       	ldi	r25, 0x00	; 0
 726:	08 95       	ret

00000728 <_ZN5Print5printEc>:
 728:	dc 01       	movw	r26, r24
 72a:	ed 91       	ld	r30, X+
 72c:	fc 91       	ld	r31, X
 72e:	01 90       	ld	r0, Z+
 730:	f0 81       	ld	r31, Z
 732:	e0 2d       	mov	r30, r0
 734:	09 94       	ijmp

00000736 <_ZN5Print7printlnEv>:
 736:	67 e7       	ldi	r22, 0x77	; 119
 738:	72 e0       	ldi	r23, 0x02	; 2
 73a:	0c 94 7f 03 	jmp	0x6fe	; 0x6fe <_ZN5Print5writeEPKc>

0000073e <_ZN5Print11printNumberEmh>:
 73e:	8f 92       	push	r8
 740:	9f 92       	push	r9
 742:	af 92       	push	r10
 744:	bf 92       	push	r11
 746:	ef 92       	push	r14
 748:	ff 92       	push	r15
 74a:	0f 93       	push	r16
 74c:	1f 93       	push	r17
 74e:	cf 93       	push	r28
 750:	df 93       	push	r29
 752:	cd b7       	in	r28, 0x3d	; 61
 754:	de b7       	in	r29, 0x3e	; 62
 756:	a1 97       	sbiw	r28, 0x21	; 33
 758:	0f b6       	in	r0, 0x3f	; 63
 75a:	f8 94       	cli
 75c:	de bf       	out	0x3e, r29	; 62
 75e:	0f be       	out	0x3f, r0	; 63
 760:	cd bf       	out	0x3d, r28	; 61
 762:	7c 01       	movw	r14, r24
 764:	fa 01       	movw	r30, r20
 766:	cb 01       	movw	r24, r22
 768:	19 a2       	std	Y+33, r1	; 0x21
 76a:	22 30       	cpi	r18, 0x02	; 2
 76c:	08 f4       	brcc	.+2      	; 0x770 <_ZN5Print11printNumberEmh+0x32>
 76e:	2a e0       	ldi	r18, 0x0A	; 10
 770:	8e 01       	movw	r16, r28
 772:	0f 5d       	subi	r16, 0xDF	; 223
 774:	1f 4f       	sbci	r17, 0xFF	; 255
 776:	82 2e       	mov	r8, r18
 778:	91 2c       	mov	r9, r1
 77a:	a1 2c       	mov	r10, r1
 77c:	b1 2c       	mov	r11, r1
 77e:	bf 01       	movw	r22, r30
 780:	a5 01       	movw	r20, r10
 782:	94 01       	movw	r18, r8
 784:	0e 94 f9 04 	call	0x9f2	; 0x9f2 <__udivmodsi4>
 788:	f9 01       	movw	r30, r18
 78a:	ca 01       	movw	r24, r20
 78c:	01 50       	subi	r16, 0x01	; 1
 78e:	11 09       	sbc	r17, r1
 790:	6a 30       	cpi	r22, 0x0A	; 10
 792:	10 f4       	brcc	.+4      	; 0x798 <_ZN5Print11printNumberEmh+0x5a>
 794:	60 5d       	subi	r22, 0xD0	; 208
 796:	01 c0       	rjmp	.+2      	; 0x79a <_ZN5Print11printNumberEmh+0x5c>
 798:	69 5c       	subi	r22, 0xC9	; 201
 79a:	d8 01       	movw	r26, r16
 79c:	6c 93       	st	X, r22
 79e:	23 2b       	or	r18, r19
 7a0:	24 2b       	or	r18, r20
 7a2:	25 2b       	or	r18, r21
 7a4:	61 f7       	brne	.-40     	; 0x77e <_ZN5Print11printNumberEmh+0x40>
 7a6:	b8 01       	movw	r22, r16
 7a8:	c7 01       	movw	r24, r14
 7aa:	0e 94 7f 03 	call	0x6fe	; 0x6fe <_ZN5Print5writeEPKc>
 7ae:	a1 96       	adiw	r28, 0x21	; 33
 7b0:	0f b6       	in	r0, 0x3f	; 63
 7b2:	f8 94       	cli
 7b4:	de bf       	out	0x3e, r29	; 62
 7b6:	0f be       	out	0x3f, r0	; 63
 7b8:	cd bf       	out	0x3d, r28	; 61
 7ba:	df 91       	pop	r29
 7bc:	cf 91       	pop	r28
 7be:	1f 91       	pop	r17
 7c0:	0f 91       	pop	r16
 7c2:	ff 90       	pop	r15
 7c4:	ef 90       	pop	r14
 7c6:	bf 90       	pop	r11
 7c8:	af 90       	pop	r10
 7ca:	9f 90       	pop	r9
 7cc:	8f 90       	pop	r8
 7ce:	08 95       	ret

000007d0 <_ZN5Print5printEmi>:
 7d0:	21 15       	cp	r18, r1
 7d2:	31 05       	cpc	r19, r1
 7d4:	41 f4       	brne	.+16     	; 0x7e6 <_ZN5Print5printEmi+0x16>
 7d6:	dc 01       	movw	r26, r24
 7d8:	ed 91       	ld	r30, X+
 7da:	fc 91       	ld	r31, X
 7dc:	01 90       	ld	r0, Z+
 7de:	f0 81       	ld	r31, Z
 7e0:	e0 2d       	mov	r30, r0
 7e2:	64 2f       	mov	r22, r20
 7e4:	09 94       	ijmp
 7e6:	0c 94 9f 03 	jmp	0x73e	; 0x73e <_ZN5Print11printNumberEmh>

000007ea <_ZN5Print7printlnEmi>:
 7ea:	0f 93       	push	r16
 7ec:	1f 93       	push	r17
 7ee:	cf 93       	push	r28
 7f0:	df 93       	push	r29
 7f2:	ec 01       	movw	r28, r24
 7f4:	0e 94 e8 03 	call	0x7d0	; 0x7d0 <_ZN5Print5printEmi>
 7f8:	8c 01       	movw	r16, r24
 7fa:	ce 01       	movw	r24, r28
 7fc:	0e 94 9b 03 	call	0x736	; 0x736 <_ZN5Print7printlnEv>
 800:	80 0f       	add	r24, r16
 802:	91 1f       	adc	r25, r17
 804:	df 91       	pop	r29
 806:	cf 91       	pop	r28
 808:	1f 91       	pop	r17
 80a:	0f 91       	pop	r16
 80c:	08 95       	ret

0000080e <_ZN5Print5printEli>:
 80e:	cf 92       	push	r12
 810:	df 92       	push	r13
 812:	ef 92       	push	r14
 814:	ff 92       	push	r15
 816:	0f 93       	push	r16
 818:	1f 93       	push	r17
 81a:	cf 93       	push	r28
 81c:	df 93       	push	r29
 81e:	21 15       	cp	r18, r1
 820:	31 05       	cpc	r19, r1
 822:	81 f4       	brne	.+32     	; 0x844 <_ZN5Print5printEli+0x36>
 824:	dc 01       	movw	r26, r24
 826:	ed 91       	ld	r30, X+
 828:	fc 91       	ld	r31, X
 82a:	01 90       	ld	r0, Z+
 82c:	f0 81       	ld	r31, Z
 82e:	e0 2d       	mov	r30, r0
 830:	64 2f       	mov	r22, r20
 832:	df 91       	pop	r29
 834:	cf 91       	pop	r28
 836:	1f 91       	pop	r17
 838:	0f 91       	pop	r16
 83a:	ff 90       	pop	r15
 83c:	ef 90       	pop	r14
 83e:	df 90       	pop	r13
 840:	cf 90       	pop	r12
 842:	09 94       	ijmp
 844:	2a 30       	cpi	r18, 0x0A	; 10
 846:	31 05       	cpc	r19, r1
 848:	01 f5       	brne	.+64     	; 0x88a <_ZN5Print5printEli+0x7c>
 84a:	77 ff       	sbrs	r23, 7
 84c:	1d c0       	rjmp	.+58     	; 0x888 <_ZN5Print5printEli+0x7a>
 84e:	6a 01       	movw	r12, r20
 850:	7b 01       	movw	r14, r22
 852:	ec 01       	movw	r28, r24
 854:	6d e2       	ldi	r22, 0x2D	; 45
 856:	0e 94 94 03 	call	0x728	; 0x728 <_ZN5Print5printEc>
 85a:	8c 01       	movw	r16, r24
 85c:	44 27       	eor	r20, r20
 85e:	55 27       	eor	r21, r21
 860:	ba 01       	movw	r22, r20
 862:	4c 19       	sub	r20, r12
 864:	5d 09       	sbc	r21, r13
 866:	6e 09       	sbc	r22, r14
 868:	7f 09       	sbc	r23, r15
 86a:	2a e0       	ldi	r18, 0x0A	; 10
 86c:	ce 01       	movw	r24, r28
 86e:	0e 94 9f 03 	call	0x73e	; 0x73e <_ZN5Print11printNumberEmh>
 872:	80 0f       	add	r24, r16
 874:	91 1f       	adc	r25, r17
 876:	df 91       	pop	r29
 878:	cf 91       	pop	r28
 87a:	1f 91       	pop	r17
 87c:	0f 91       	pop	r16
 87e:	ff 90       	pop	r15
 880:	ef 90       	pop	r14
 882:	df 90       	pop	r13
 884:	cf 90       	pop	r12
 886:	08 95       	ret
 888:	2a e0       	ldi	r18, 0x0A	; 10
 88a:	df 91       	pop	r29
 88c:	cf 91       	pop	r28
 88e:	1f 91       	pop	r17
 890:	0f 91       	pop	r16
 892:	ff 90       	pop	r15
 894:	ef 90       	pop	r14
 896:	df 90       	pop	r13
 898:	cf 90       	pop	r12
 89a:	0c 94 9f 03 	jmp	0x73e	; 0x73e <_ZN5Print11printNumberEmh>

0000089e <__vector_16>:
 89e:	1f 92       	push	r1
 8a0:	0f 92       	push	r0
 8a2:	0f b6       	in	r0, 0x3f	; 63
 8a4:	0f 92       	push	r0
 8a6:	11 24       	eor	r1, r1
 8a8:	2f 93       	push	r18
 8aa:	3f 93       	push	r19
 8ac:	8f 93       	push	r24
 8ae:	9f 93       	push	r25
 8b0:	af 93       	push	r26
 8b2:	bf 93       	push	r27
 8b4:	80 91 24 03 	lds	r24, 0x0324	; 0x800324 <timer0_millis>
 8b8:	90 91 25 03 	lds	r25, 0x0325	; 0x800325 <timer0_millis+0x1>
 8bc:	a0 91 26 03 	lds	r26, 0x0326	; 0x800326 <timer0_millis+0x2>
 8c0:	b0 91 27 03 	lds	r27, 0x0327	; 0x800327 <timer0_millis+0x3>
 8c4:	30 91 23 03 	lds	r19, 0x0323	; 0x800323 <timer0_fract>
 8c8:	23 e0       	ldi	r18, 0x03	; 3
 8ca:	23 0f       	add	r18, r19
 8cc:	2d 37       	cpi	r18, 0x7D	; 125
 8ce:	20 f4       	brcc	.+8      	; 0x8d8 <__vector_16+0x3a>
 8d0:	01 96       	adiw	r24, 0x01	; 1
 8d2:	a1 1d       	adc	r26, r1
 8d4:	b1 1d       	adc	r27, r1
 8d6:	05 c0       	rjmp	.+10     	; 0x8e2 <__vector_16+0x44>
 8d8:	26 e8       	ldi	r18, 0x86	; 134
 8da:	23 0f       	add	r18, r19
 8dc:	02 96       	adiw	r24, 0x02	; 2
 8de:	a1 1d       	adc	r26, r1
 8e0:	b1 1d       	adc	r27, r1
 8e2:	20 93 23 03 	sts	0x0323, r18	; 0x800323 <timer0_fract>
 8e6:	80 93 24 03 	sts	0x0324, r24	; 0x800324 <timer0_millis>
 8ea:	90 93 25 03 	sts	0x0325, r25	; 0x800325 <timer0_millis+0x1>
 8ee:	a0 93 26 03 	sts	0x0326, r26	; 0x800326 <timer0_millis+0x2>
 8f2:	b0 93 27 03 	sts	0x0327, r27	; 0x800327 <timer0_millis+0x3>
 8f6:	80 91 28 03 	lds	r24, 0x0328	; 0x800328 <timer0_overflow_count>
 8fa:	90 91 29 03 	lds	r25, 0x0329	; 0x800329 <timer0_overflow_count+0x1>
 8fe:	a0 91 2a 03 	lds	r26, 0x032A	; 0x80032a <timer0_overflow_count+0x2>
 902:	b0 91 2b 03 	lds	r27, 0x032B	; 0x80032b <timer0_overflow_count+0x3>
 906:	01 96       	adiw	r24, 0x01	; 1
 908:	a1 1d       	adc	r26, r1
 90a:	b1 1d       	adc	r27, r1
 90c:	80 93 28 03 	sts	0x0328, r24	; 0x800328 <timer0_overflow_count>
 910:	90 93 29 03 	sts	0x0329, r25	; 0x800329 <timer0_overflow_count+0x1>
 914:	a0 93 2a 03 	sts	0x032A, r26	; 0x80032a <timer0_overflow_count+0x2>
 918:	b0 93 2b 03 	sts	0x032B, r27	; 0x80032b <timer0_overflow_count+0x3>
 91c:	bf 91       	pop	r27
 91e:	af 91       	pop	r26
 920:	9f 91       	pop	r25
 922:	8f 91       	pop	r24
 924:	3f 91       	pop	r19
 926:	2f 91       	pop	r18
 928:	0f 90       	pop	r0
 92a:	0f be       	out	0x3f, r0	; 63
 92c:	0f 90       	pop	r0
 92e:	1f 90       	pop	r1
 930:	18 95       	reti

00000932 <micros>:
 932:	3f b7       	in	r19, 0x3f	; 63
 934:	f8 94       	cli
 936:	80 91 28 03 	lds	r24, 0x0328	; 0x800328 <timer0_overflow_count>
 93a:	90 91 29 03 	lds	r25, 0x0329	; 0x800329 <timer0_overflow_count+0x1>
 93e:	a0 91 2a 03 	lds	r26, 0x032A	; 0x80032a <timer0_overflow_count+0x2>
 942:	b0 91 2b 03 	lds	r27, 0x032B	; 0x80032b <timer0_overflow_count+0x3>
 946:	26 b5       	in	r18, 0x26	; 38
 948:	a8 9b       	sbis	0x15, 0	; 21
 94a:	05 c0       	rjmp	.+10     	; 0x956 <micros+0x24>
 94c:	2f 3f       	cpi	r18, 0xFF	; 255
 94e:	19 f0       	breq	.+6      	; 0x956 <micros+0x24>
 950:	01 96       	adiw	r24, 0x01	; 1
 952:	a1 1d       	adc	r26, r1
 954:	b1 1d       	adc	r27, r1
 956:	3f bf       	out	0x3f, r19	; 63
 958:	ba 2f       	mov	r27, r26
 95a:	a9 2f       	mov	r26, r25
 95c:	98 2f       	mov	r25, r24
 95e:	88 27       	eor	r24, r24
 960:	82 0f       	add	r24, r18
 962:	91 1d       	adc	r25, r1
 964:	a1 1d       	adc	r26, r1
 966:	b1 1d       	adc	r27, r1
 968:	bc 01       	movw	r22, r24
 96a:	cd 01       	movw	r24, r26
 96c:	42 e0       	ldi	r20, 0x02	; 2
 96e:	66 0f       	add	r22, r22
 970:	77 1f       	adc	r23, r23
 972:	88 1f       	adc	r24, r24
 974:	99 1f       	adc	r25, r25
 976:	4a 95       	dec	r20
 978:	d1 f7       	brne	.-12     	; 0x96e <micros+0x3c>
 97a:	08 95       	ret

0000097c <init>:
 97c:	78 94       	sei
 97e:	84 b5       	in	r24, 0x24	; 36
 980:	82 60       	ori	r24, 0x02	; 2
 982:	84 bd       	out	0x24, r24	; 36
 984:	84 b5       	in	r24, 0x24	; 36
 986:	81 60       	ori	r24, 0x01	; 1
 988:	84 bd       	out	0x24, r24	; 36
 98a:	85 b5       	in	r24, 0x25	; 37
 98c:	82 60       	ori	r24, 0x02	; 2
 98e:	85 bd       	out	0x25, r24	; 37
 990:	85 b5       	in	r24, 0x25	; 37
 992:	81 60       	ori	r24, 0x01	; 1
 994:	85 bd       	out	0x25, r24	; 37
 996:	ee e6       	ldi	r30, 0x6E	; 110
 998:	f0 e0       	ldi	r31, 0x00	; 0
 99a:	80 81       	ld	r24, Z
 99c:	81 60       	ori	r24, 0x01	; 1
 99e:	80 83       	st	Z, r24
 9a0:	e1 e8       	ldi	r30, 0x81	; 129
 9a2:	f0 e0       	ldi	r31, 0x00	; 0
 9a4:	10 82       	st	Z, r1
 9a6:	80 81       	ld	r24, Z
 9a8:	82 60       	ori	r24, 0x02	; 2
 9aa:	80 83       	st	Z, r24
 9ac:	80 81       	ld	r24, Z
 9ae:	81 60       	ori	r24, 0x01	; 1
 9b0:	80 83       	st	Z, r24
 9b2:	e0 e8       	ldi	r30, 0x80	; 128
 9b4:	f0 e0       	ldi	r31, 0x00	; 0
 9b6:	80 81       	ld	r24, Z
 9b8:	81 60       	ori	r24, 0x01	; 1
 9ba:	80 83       	st	Z, r24
 9bc:	e1 eb       	ldi	r30, 0xB1	; 177
 9be:	f0 e0       	ldi	r31, 0x00	; 0
 9c0:	80 81       	ld	r24, Z
 9c2:	84 60       	ori	r24, 0x04	; 4
 9c4:	80 83       	st	Z, r24
 9c6:	e0 eb       	ldi	r30, 0xB0	; 176
 9c8:	f0 e0       	ldi	r31, 0x00	; 0
 9ca:	80 81       	ld	r24, Z
 9cc:	81 60       	ori	r24, 0x01	; 1
 9ce:	80 83       	st	Z, r24
 9d0:	ea e7       	ldi	r30, 0x7A	; 122
 9d2:	f0 e0       	ldi	r31, 0x00	; 0
 9d4:	80 81       	ld	r24, Z
 9d6:	84 60       	ori	r24, 0x04	; 4
 9d8:	80 83       	st	Z, r24
 9da:	80 81       	ld	r24, Z
 9dc:	82 60       	ori	r24, 0x02	; 2
 9de:	80 83       	st	Z, r24
 9e0:	80 81       	ld	r24, Z
 9e2:	81 60       	ori	r24, 0x01	; 1
 9e4:	80 83       	st	Z, r24
 9e6:	80 81       	ld	r24, Z
 9e8:	80 68       	ori	r24, 0x80	; 128
 9ea:	80 83       	st	Z, r24
 9ec:	10 92 c1 00 	sts	0x00C1, r1	; 0x8000c1 <__TEXT_REGION_LENGTH__+0x7e00c1>
 9f0:	08 95       	ret

000009f2 <__udivmodsi4>:
 9f2:	a1 e2       	ldi	r26, 0x21	; 33
 9f4:	1a 2e       	mov	r1, r26
 9f6:	aa 1b       	sub	r26, r26
 9f8:	bb 1b       	sub	r27, r27
 9fa:	fd 01       	movw	r30, r26
 9fc:	0d c0       	rjmp	.+26     	; 0xa18 <__udivmodsi4_ep>

000009fe <__udivmodsi4_loop>:
 9fe:	aa 1f       	adc	r26, r26
 a00:	bb 1f       	adc	r27, r27
 a02:	ee 1f       	adc	r30, r30
 a04:	ff 1f       	adc	r31, r31
 a06:	a2 17       	cp	r26, r18
 a08:	b3 07       	cpc	r27, r19
 a0a:	e4 07       	cpc	r30, r20
 a0c:	f5 07       	cpc	r31, r21
 a0e:	20 f0       	brcs	.+8      	; 0xa18 <__udivmodsi4_ep>
 a10:	a2 1b       	sub	r26, r18
 a12:	b3 0b       	sbc	r27, r19
 a14:	e4 0b       	sbc	r30, r20
 a16:	f5 0b       	sbc	r31, r21

00000a18 <__udivmodsi4_ep>:
 a18:	66 1f       	adc	r22, r22
 a1a:	77 1f       	adc	r23, r23
 a1c:	88 1f       	adc	r24, r24
 a1e:	99 1f       	adc	r25, r25
 a20:	1a 94       	dec	r1
 a22:	69 f7       	brne	.-38     	; 0x9fe <__udivmodsi4_loop>
 a24:	60 95       	com	r22
 a26:	70 95       	com	r23
 a28:	80 95       	com	r24
 a2a:	90 95       	com	r25
 a2c:	9b 01       	movw	r18, r22
 a2e:	ac 01       	movw	r20, r24
 a30:	bd 01       	movw	r22, r26
 a32:	cf 01       	movw	r24, r30
 a34:	08 95       	ret

00000a36 <__tablejump2__>:
 a36:	ee 0f       	add	r30, r30
 a38:	ff 1f       	adc	r31, r31
 a3a:	05 90       	lpm	r0, Z+
 a3c:	f4 91       	lpm	r31, Z
 a3e:	e0 2d       	mov	r30, r0
 a40:	09 94       	ijmp

00000a42 <_exit>:
 a42:	f8 94       	cli

00000a44 <__stop_program>:
 a44:	ff cf       	rjmp	.-2      	; 0xa44 <__stop_program>
